; Function Attrs: mustprogress uwtable
define internal void @_ZL11_ThreadTaskv() #4 personality ptr @__gxx_personality_v0 {
  %1 = alloca %struct.timespec, align 8
  %2 = alloca %"class.pxrInternal_v0_24__pxrReserved__::TfErrorMark", align 8
  %3 = alloca %"class.pxrInternal_v0_24__pxrReserved__::TfCallContext", align 8
  call void @_ZN32pxrInternal_v0_24__pxrReserved__11TfErrorMarkC1Ev(ptr noundef nonnull align 8 dereferenceable(8) %2)
  store ptr @.str, ptr %3, align 8
  %4 = getelementptr inbounds nuw i8, ptr %3, i64 8
  store ptr @__func__._ZL11_ThreadTaskv, ptr %4, align 8
  %5 = getelementptr inbounds nuw i8, ptr %3, i64 16
  store i64 28, ptr %5, align 8
  %6 = getelementptr inbounds nuw i8, ptr %3, i64 24
  store ptr @__PRETTY_FUNCTION__._ZL11_ThreadTaskv, ptr %6, align 8
  %7 = getelementptr inbounds nuw i8, ptr %3, i64 32
  store i8 0, ptr %7, align 8
  invoke void (ptr, i32, ptr, ...) @_ZN32pxrInternal_v0_24__pxrReserved__18Tf_PostErrorHelperERKNS_13TfCallContextENS_16TfDiagnosticTypeEPKcz(ptr noundef nonnull align 8 dereferenceable(33) %3, i32 noundef 3, ptr noundef nonnull @.str.2)
          to label %8 unwind label %.loopexit.split-lp

8:                                                ; preds = %0
  call void @llvm.lifetime.start.p0(i64 16, ptr nonnull %1)
  store i64 600, ptr %1, align 8
  %9 = getelementptr inbounds nuw i8, ptr %1, i64 8
  store i64 0, ptr %9, align 8
  br label %10

10:                                               ; preds = %13, %8
  %11 = invoke i32 @nanosleep(ptr noundef nonnull %1, ptr noundef nonnull %1)
          to label %.noexc unwind label %.loopexit

.noexc:                                           ; preds = %10
  %12 = icmp eq i32 %11, -1
  br i1 %12, label %13, label %17

13:                                               ; preds = %.noexc
  %14 = tail call ptr @__errno_location() #14
  %15 = load i32, ptr %14, align 4
  %16 = icmp eq i32 %15, 4
  br i1 %16, label %10, label %17, !llvm.loop !7

17:                                               ; preds = %13, %.noexc
  call void @llvm.lifetime.end.p0(i64 16, ptr nonnull %1)
  call void @_ZN32pxrInternal_v0_24__pxrReserved__11TfErrorMarkD1Ev(ptr noundef nonnull align 8 dereferenceable(8) %2) #13
  ret void

.loopexit:                                        ; preds = %10
  %lpad.loopexit = landingpad { ptr, i32 }
          cleanup
  br label %18

.loopexit.split-lp:                               ; preds = %0
  %lpad.loopexit.split-lp = landingpad { ptr, i32 }
          cleanup
  br label %18

18:                                               ; preds = %.loopexit.split-lp, %.loopexit
  %lpad.phi = phi { ptr, i32 } [ %lpad.loopexit, %.loopexit ], [ %lpad.loopexit.split-lp, %.loopexit.split-lp ]
  call void @_ZN32pxrInternal_v0_24__pxrReserved__11TfErrorMarkD1Ev(ptr noundef nonnull align 8 dereferenceable(8) %2) #13
  resume { ptr, i32 } %lpad.phi
}